target datalayout = "e-m:e-p270:32:32-p271:32:32-p272:64:64-i64:64-i128:128-f80:128-n8:16:32:64-S128"
target triple = "x86_64-unknown-linux-gnu"

%"class.std::vector.0" = type { %"struct.std::_Vector_base.1" }
%"struct.std::_Vector_base.1" = type { %"struct.std::_Vector_base<double, std::allocator<double>>::_Vector_impl" }
%"struct.std::_Vector_base<double, std::allocator<double>>::_Vector_impl" = type { %"struct.std::_Vector_base<double, std::allocator<double>>::_Vector_impl_data" }
%"struct.std::_Vector_base<double, std::allocator<double>>::_Vector_impl_data" = type { ptr, ptr, ptr }
%"class.QuantLib::Burley2020SobolRsg" = type { i64, i64, i32, %"class.boost::shared_ptr", %"class.std::vector", %"struct.QuantLib::Sample", i32, %"class.std::vector" }
%"class.boost::shared_ptr" = type { ptr, %"class.boost::detail::shared_count" }
%"class.boost::detail::shared_count" = type { ptr }
%"struct.QuantLib::Sample" = type { %"class.std::vector.0", double }
%"class.std::vector" = type { %"struct.std::_Vector_base" }
%"struct.std::_Vector_base" = type { %"struct.std::_Vector_base<unsigned int, std::allocator<unsigned int>>::_Vector_impl" }
%"struct.std::_Vector_base<unsigned int, std::allocator<unsigned int>>::_Vector_impl" = type { %"struct.std::_Vector_base<unsigned int, std::allocator<unsigned int>>::_Vector_impl_data" }
%"struct.std::_Vector_base<unsigned int, std::allocator<unsigned int>>::_Vector_impl_data" = type { ptr, ptr, ptr }

; Function Attrs: mustprogress uwtable
define noundef nonnull align 8 dereferenceable(24) ptr @_ZNK8QuantLib18Burley2020SobolRsg6skipToEj(ptr noundef nonnull align 8 dereferenceable(128) %this, i32 noundef %n) #0 align 2 {
entry:
  %this.addr = alloca ptr, align 8
  %n.addr = alloca i32, align 4
  %k = alloca i64, align 8
  store ptr %this, ptr %this.addr, align 8, !tbaa !3
  store i32 %n, ptr %n.addr, align 4, !tbaa !28
  %this1 = load ptr, ptr %this.addr, align 8
  call void @_ZNK8QuantLib18Burley2020SobolRsg5resetEv(ptr noundef nonnull align 8 dereferenceable(128) %this1)
  call void @llvm.lifetime.start.p0(i64 8, ptr %k) #15
  store i64 0, ptr %k, align 8, !tbaa !7
  br label %for.cond

for.cond:                                         ; preds = %for.inc, %entry
  %0 = load i64, ptr %k, align 8, !tbaa !7
  %1 = load i32, ptr %n.addr, align 4, !tbaa !28
  %add = add i32 %1, 1
  %conv = zext i32 %add to i64
  %cmp = icmp ult i64 %0, %conv
  br i1 %cmp, label %for.body, label %for.cond.cleanup

for.cond.cleanup:                                 ; preds = %for.cond
  call void @llvm.lifetime.end.p0(i64 8, ptr %k) #15
  br label %for.end

for.body:                                         ; preds = %for.cond
  %call = call noundef nonnull align 8 dereferenceable(24) ptr @_ZNK8QuantLib18Burley2020SobolRsg17nextInt32SequenceEv(ptr noundef nonnull align 8 dereferenceable(128) %this1)
  br label %for.inc

for.inc:                                          ; preds = %for.body
  %2 = load i64, ptr %k, align 8, !tbaa !7
  %inc = add i64 %2, 1
  store i64 %inc, ptr %k, align 8, !tbaa !7
  br label %for.cond, !llvm.loop !45

for.end:                                          ; preds = %for.cond.cleanup
  %integerSequence_ = getelementptr inbounds nuw %"class.QuantLib::Burley2020SobolRsg", ptr %this1, i32 0, i32 4
  ret ptr %integerSequence_
}