; Function Attrs: mustprogress uwtable
define noundef nonnull align 8 dereferenceable(24) ptr @_ZNK8QuantLib18Burley2020SobolRsg6skipToEj(ptr noundef nonnull align 8 dereferenceable(128) %this, i32 noundef %n) local_unnamed_addr #0 align 2 {
entry:
  tail call void @_ZNK8QuantLib18Burley2020SobolRsg5resetEv(ptr noundef nonnull align 8 dereferenceable(128) %this)
  %add = add i32 %n, 1
  %conv = zext i32 %add to i64
  %cmp2.not = icmp eq i32 %add, 0
  br i1 %cmp2.not, label %for.cond.cleanup, label %for.body

for.cond.cleanup:                                 ; preds = %for.body, %entry
  %integerSequence_ = getelementptr inbounds nuw i8, ptr %this, i64 40
  ret ptr %integerSequence_

for.body:                                         ; preds = %entry, %for.body
  %k.03 = phi i64 [ %inc, %for.body ], [ 0, %entry ]
  %call = tail call noundef nonnull align 8 dereferenceable(24) ptr @_ZNK8QuantLib18Burley2020SobolRsg17nextInt32SequenceEv(ptr noundef nonnull align 8 dereferenceable(128) %this)
  %inc = add nuw nsw i64 %k.03, 1
  %exitcond.not = icmp eq i64 %inc, %conv
  br i1 %exitcond.not, label %for.cond.cleanup, label %for.body, !llvm.loop !55
}